(dp0
S'18682476447'
p1
(dp2
S'cookies'
p3
(dp4
S'xq_token_expire'
p5
S'Sat%20Jun%2018%202016%2023%3A13%3A18%20GMT%2B0800%20(CST)'
p6
sS'xq_is_login'
p7
S'1'
p8
sS'bid'
p9
S'e19c20cc9be83c9379054d5a1fa625bd_ioll05fh'
p10
sS'xqat'
p11
S'325ec8ac8d65166e14491a23bd54937e6c09501d'
p12
sS's'
p13
S'1jkp12jwdx'
p14
sS'u'
p15
S'8558157548'
p16
sS'xq_a_token'
p17
S'325ec8ac8d65166e14491a23bd54937e6c09501d'
p18
sS'xq_r_token'
p19
S'0144ab3c76557901e7c27f30c47c0d3e415863cc'
p20
ssS'user_name'
p21
g1
sS'uid'
p22
I8558157548
ss.