(dp0
S'cookies'
p1
(dp2
S'xq_token_expire'
p3
S'Tue%20Jun%2007%202016%2009%3A46%3A01%20GMT%2B0800%20(CST)'
p4
sS'xq_is_login'
p5
S'1'
p6
sS'xqat'
p7
S'de9a75ce8d374d969519333ddd2f46421524b83b'
p8
sS's'
p9
S'1tyo11fwya'
p10
sS'u'
p11
S'9693385479'
p12
sS'xq_a_token'
p13
S'de9a75ce8d374d969519333ddd2f46421524b83b'
p14
sS'xq_r_token'
p15
S'1e79b2de82bbfaf172468779b7dfa2d06a40f397'
p16
ssS'user_name'
p17
S'18503056932'
p18
sS'uid'
p19
I9693385479
s.