(dp0
S'xq_token_expire'
p1
S'Sat%20Jun%2004%202016%2022%3A27%3A28%20GMT%2B0800%20(CST)'
p2
sS'xq_is_login'
p3
S'1'
p4
sS'xqat'
p5
S'de9a75ce8d374d969519333ddd2f46421524b83b'
p6
sS's'
p7
S'1yfk127zym'
p8
sS'u'
p9
S'9693385479'
p10
sS'xq_a_token'
p11
S'de9a75ce8d374d969519333ddd2f46421524b83b'
p12
sS'xq_r_token'
p13
S'1e79b2de82bbfaf172468779b7dfa2d06a40f397'
p14
s.