(dp0
S'18682476447'
p1
(dp2
S'cookies'
p3
(dp4
S'xq_token_expire'
p5
S'Sun%20Jun%2019%202016%2009%3A44%3A04%20GMT%2B0800%20(CST)'
p6
sS'xq_is_login'
p7
S'1'
p8
sS'bid'
p9
S'e19c20cc9be83c9379054d5a1fa625bd_iom7jc4l'
p10
sS'xqat'
p11
S'325ec8ac8d65166e14491a23bd54937e6c09501d'
p12
sS's'
p13
S'5v811o8v32'
p14
sS'u'
p15
S'8558157548'
p16
sS'xq_a_token'
p17
S'325ec8ac8d65166e14491a23bd54937e6c09501d'
p18
sS'xq_r_token'
p19
S'0144ab3c76557901e7c27f30c47c0d3e415863cc'
p20
ssS'user_name'
p21
g1
sS'uid'
p22
I8558157548
ssS'15018523696'
p23
(dp24
S'cookies'
p25
(dp26
S'xq_token_expire'
p27
S'Sun%20Jun%2019%202016%2009%3A43%3A58%20GMT%2B0800%20(CST)'
p28
sS'xq_is_login'
p29
S'1'
p30
sS'bid'
p31
S'201e151976d91ae41a0c5aa42971006b_iom7j7aq'
p32
sS'xqat'
p33
S'71286023ddbcdf8e20815e038b5cc717fb0ccb40'
p34
sS's'
p35
S'5um12ia64p'
p36
sS'u'
p37
S'8788681312'
p38
sS'xq_a_token'
p39
S'71286023ddbcdf8e20815e038b5cc717fb0ccb40'
p40
sS'xq_r_token'
p41
S'cb30ea9a15f0e17cf55f55e85094b52998dd0b19'
p42
ssS'user_name'
p43
g23
sS'uid'
p44
I8788681312
ss.