(dp0
S'cookies'
p1
(dp2
S'xq_token_expire'
p3
S'Tue%20Jun%2014%202016%2022%3A27%3A21%20GMT%2B0800%20(CST)'
p4
sS'xq_is_login'
p5
S'1'
p6
sS'bid'
p7
S'4bd9eb5737d5748ff5fc03f08d727219_ioftlnvg'
p8
sS'xqat'
p9
S'44373163c6d27f1e961bcd1107fd649d3d734742'
p10
sS's'
p11
S'fpv12s5ty6'
p12
sS'u'
p13
S'9693385479'
p14
sS'xq_a_token'
p15
S'44373163c6d27f1e961bcd1107fd649d3d734742'
p16
sS'xq_r_token'
p17
S'6e1bfc91691892851ba316897e18b6355f1841d0'
p18
ssS'user_name'
p19
S'18503056932'
p20
sS'uid'
p21
I9693385479
s.