(dp0
S'cookies'
p1
(dp2
S'xq_token_expire'
p3
S'Thu%20Jun%2009%202016%2000%3A28%3A07%20GMT%2B0800%20(CST)'
p4
sS'xq_is_login'
p5
S'1'
p6
sS'bid'
p7
S'0af75a9b76d8c19068a00484684b0329_io7d9ujh'
p8
sS'xqat'
p9
S'2e96523d58e822e8a01dec1951adc9cf268126c9'
p10
sS's'
p11
S'fdb11n4pu5'
p12
sS'u'
p13
S'2862718994'
p14
sS'xq_a_token'
p15
S'2e96523d58e822e8a01dec1951adc9cf268126c9'
p16
sS'xq_r_token'
p17
S'57c38a4b9ef9fbe48d8b864ea38b6fc2861e5b94'
p18
ssS'user_name'
p19
S'79498699@qq.com'
p20
sS'uid'
p21
I2862718994
s.